target datalayout = "e-m:e-p270:32:32-p271:32:32-p272:64:64-i64:64-i128:128-f80:128-n8:16:32:64-S128"
target triple = "x86_64-pc-linux-gnu"

%struct.cmsCIEXYZ = type { double, double, double }
%struct.cmsMAT3 = type { [3 x %struct.cmsVEC3] }
%struct.cmsVEC3 = type { [3 x double] }

; Function Attrs: nounwind uwtable
define hidden i32 @cmsAdaptToIlluminant(ptr noundef %0, ptr noundef %1, ptr noundef %2, ptr noundef %3) #0 {
  %5 = alloca i32, align 4
  %6 = alloca ptr, align 8
  %7 = alloca ptr, align 8
  %8 = alloca ptr, align 8
  %9 = alloca ptr, align 8
  %10 = alloca %struct.cmsMAT3, align 8
  %11 = alloca %struct.cmsVEC3, align 8
  %12 = alloca %struct.cmsVEC3, align 8
  store ptr %0, ptr %6, align 8
  store ptr %1, ptr %7, align 8
  store ptr %2, ptr %8, align 8
  store ptr %3, ptr %9, align 8
  %13 = load ptr, ptr %7, align 8
  %14 = load ptr, ptr %8, align 8
  %15 = call i32 @_cmsAdaptationMatrix(ptr noundef %10, ptr noundef null, ptr noundef %13, ptr noundef %14)
  %16 = icmp ne i32 %15, 0
  br i1 %16, label %18, label %17

17:                                               ; preds = %4
  store i32 0, ptr %5, align 4
  br label %43

18:                                               ; preds = %4
  %19 = load ptr, ptr %9, align 8
  %20 = getelementptr inbounds %struct.cmsCIEXYZ, ptr %19, i32 0, i32 0
  %21 = load double, ptr %20, align 8
  %22 = load ptr, ptr %9, align 8
  %23 = getelementptr inbounds %struct.cmsCIEXYZ, ptr %22, i32 0, i32 1
  %24 = load double, ptr %23, align 8
  %25 = load ptr, ptr %9, align 8
  %26 = getelementptr inbounds %struct.cmsCIEXYZ, ptr %25, i32 0, i32 2
  %27 = load double, ptr %26, align 8
  call void @_cmsVEC3init(ptr noundef %11, double noundef %21, double noundef %24, double noundef %27)
  call void @_cmsMAT3eval(ptr noundef %12, ptr noundef %10, ptr noundef %11)
  %28 = getelementptr inbounds %struct.cmsVEC3, ptr %12, i32 0, i32 0
  %29 = getelementptr inbounds [3 x double], ptr %28, i64 0, i64 0
  %30 = load double, ptr %29, align 8
  %31 = load ptr, ptr %6, align 8
  %32 = getelementptr inbounds %struct.cmsCIEXYZ, ptr %31, i32 0, i32 0
  store double %30, ptr %32, align 8
  %33 = getelementptr inbounds %struct.cmsVEC3, ptr %12, i32 0, i32 0
  %34 = getelementptr inbounds [3 x double], ptr %33, i64 0, i64 1
  %35 = load double, ptr %34, align 8
  %36 = load ptr, ptr %6, align 8
  %37 = getelementptr inbounds %struct.cmsCIEXYZ, ptr %36, i32 0, i32 1
  store double %35, ptr %37, align 8
  %38 = getelementptr inbounds %struct.cmsVEC3, ptr %12, i32 0, i32 0
  %39 = getelementptr inbounds [3 x double], ptr %38, i64 0, i64 2
  %40 = load double, ptr %39, align 8
  %41 = load ptr, ptr %6, align 8
  %42 = getelementptr inbounds %struct.cmsCIEXYZ, ptr %41, i32 0, i32 2
  store double %40, ptr %42, align 8
  store i32 1, ptr %5, align 4
  br label %43

43:                                               ; preds = %18, %17
  %44 = load i32, ptr %5, align 4
  ret i32 %44
}